Certificate:
    Data:
        Version: 3 (0x2)
        Serial Number: 1 (0x1)
        Signature Algorithm: sha256WithRSAEncryption
        Issuer: C=RU, ST=Some-State, O=Internet Widgits Pty Ltd, OU=WSR, CN=WSR CA
        Validity
            Not Before: Aug 27 17:08:29 2021 GMT
            Not After : Aug 27 17:08:29 2022 GMT
        Subject: C=RU, ST=Some-State, O=Internet Widgits Pty Ltd, OU=WSR, CN=www.test.lab
        Subject Public Key Info:
            Public Key Algorithm: rsaEncryption
                RSA Public-Key: (2048 bit)
                Modulus:
                    00:9e:7b:42:08:88:df:6b:ec:a3:9a:42:db:94:28:
                    cf:12:c6:73:3d:bb:db:b1:2f:1e:55:1c:fe:7d:03:
                    1d:85:f9:52:4a:bc:45:ab:59:c1:58:46:03:53:d3:
                    4d:2b:31:a1:78:58:c8:33:aa:dd:3e:6a:03:a4:11:
                    49:e2:9e:11:e0:dc:30:2d:b3:c8:b7:c7:47:8c:b5:
                    12:db:e4:d3:25:7e:64:6a:ab:24:61:d8:f6:9d:be:
                    a8:b9:ad:45:86:82:44:2c:35:d5:22:8a:7d:cb:3b:
                    e2:97:08:f7:5d:50:6e:ae:8b:8e:82:9d:28:1c:b6:
                    ae:b9:79:30:be:c4:73:91:56:40:de:11:02:10:50:
                    e6:41:83:ea:3b:89:a2:a4:eb:1a:5c:83:b0:fa:83:
                    95:00:7c:db:93:35:c7:ce:ca:b3:d7:00:be:9c:38:
                    33:d0:a0:fd:2e:2d:45:ca:df:72:7c:62:23:55:98:
                    aa:01:45:72:82:aa:e4:68:63:b1:d5:9c:df:c1:8d:
                    83:6a:d2:0e:1f:70:b2:42:0c:78:79:52:10:6b:1a:
                    8a:c5:ac:76:ac:bc:7e:05:e7:ed:46:c8:64:a0:a0:
                    dd:6e:d5:f0:9b:92:7f:56:ec:ff:28:d4:b5:69:75:
                    f4:42:76:ff:4f:72:98:fb:cd:7f:f1:bf:7a:ee:f6:
                    83:87
                Exponent: 65537 (0x10001)
        X509v3 extensions:
            X509v3 Basic Constraints: 
                CA:FALSE
            Netscape Comment: 
                OpenSSL Generated Certificate
            X509v3 Subject Key Identifier: 
                C3:9A:67:62:CD:36:F9:4A:66:AA:D1:17:F5:B0:A7:E5:A4:B9:6F:0E
            X509v3 Authority Key Identifier: 
                DirName:/C=RU/ST=Some-State/O=Internet Widgits Pty Ltd/OU=WSR/CN=WSR CA
                serial:59:63:F3:6E:43:BE:40:0E:02:80:9E:B6:03:70:9E:59:CC:4D:68:39

    Signature Algorithm: sha256WithRSAEncryption
         6d:04:f8:69:9b:f6:6d:6a:bc:f5:c2:85:0f:74:ee:33:b1:19:
         dd:19:9e:bc:f6:5b:5e:61:11:b9:13:65:41:89:af:8b:2a:c7:
         63:a1:fa:72:7c:c1:64:45:13:cf:ee:c1:74:4a:ce:02:6f:00:
         40:97:da:4c:1b:38:63:29:99:0f:0e:c6:44:bb:ca:e8:2b:b3:
         0c:75:12:a3:f0:e9:d6:f3:d4:8e:39:ed:d4:07:8c:b8:08:62:
         5a:0e:05:3a:ce:ee:28:d5:0a:c7:53:33:a0:5e:68:de:8f:68:
         ec:f2:58:cc:9c:a7:54:b1:6b:01:bc:7e:08:1c:22:ba:1e:9c:
         3e:34:c6:df:f3:6c:65:98:48:22:4f:42:94:70:ec:a8:9d:8a:
         ff:d4:76:91:96:46:cb:29:d9:66:1e:76:73:22:a0:18:cb:36:
         0f:88:d4:01:13:ea:72:8b:55:ff:f6:f8:3b:a5:38:4a:44:b5:
         0c:79:37:56:7b:7a:a2:2d:bb:19:32:fe:3c:f4:19:a1:15:f0:
         8d:5b:90:2a:3e:2a:f5:51:66:58:ea:1c:50:ff:68:e6:51:9e:
         c9:8c:c7:c7:a8:a7:e7:17:9e:18:30:95:6a:5a:7f:b5:59:4d:
         5b:48:dc:43:44:d3:67:5e:55:37:44:54:3f:95:b9:66:9d:ea:
         2e:38:87:f2
-----BEGIN CERTIFICATE-----
MIIEMzCCAxugAwIBAgIBATANBgkqhkiG9w0BAQsFADBkMQswCQYDVQQGEwJSVTET
MBEGA1UECAwKU29tZS1TdGF0ZTEhMB8GA1UECgwYSW50ZXJuZXQgV2lkZ2l0cyBQ
dHkgTHRkMQwwCgYDVQQLDANXU1IxDzANBgNVBAMMBldTUiBDQTAeFw0yMTA4Mjcx
NzA4MjlaFw0yMjA4MjcxNzA4MjlaMGoxCzAJBgNVBAYTAlJVMRMwEQYDVQQIDApT
b21lLVN0YXRlMSEwHwYDVQQKDBhJbnRlcm5ldCBXaWRnaXRzIFB0eSBMdGQxDDAK
BgNVBAsMA1dTUjEVMBMGA1UEAwwMd3d3LnRlc3QubGFiMIIBIjANBgkqhkiG9w0B
AQEFAAOCAQ8AMIIBCgKCAQEAnntCCIjfa+yjmkLblCjPEsZzPbvbsS8eVRz+fQMd
hflSSrxFq1nBWEYDU9NNKzGheFjIM6rdPmoDpBFJ4p4R4NwwLbPIt8dHjLUS2+TT
JX5kaqskYdj2nb6oua1FhoJELDXVIop9yzvilwj3XVBurouOgp0oHLauuXkwvsRz
kVZA3hECEFDmQYPqO4mipOsaXIOw+oOVAHzbkzXHzsqz1wC+nDgz0KD9Li1Fyt9y
fGIjVZiqAUVygqrkaGOx1ZzfwY2DatIOH3CyQgx4eVIQaxqKxax2rLx+BeftRshk
oKDdbtXwm5J/Vuz/KNS1aXX0Qnb/T3KY+81/8b967vaDhwIDAQABo4HpMIHmMAkG
A1UdEwQCMAAwLAYJYIZIAYb4QgENBB8WHU9wZW5TU0wgR2VuZXJhdGVkIENlcnRp
ZmljYXRlMB0GA1UdDgQWBBTDmmdizTb5Smaq0Rf1sKflpLlvDjCBiwYDVR0jBIGD
MIGAoWikZjBkMQswCQYDVQQGEwJSVTETMBEGA1UECAwKU29tZS1TdGF0ZTEhMB8G
A1UECgwYSW50ZXJuZXQgV2lkZ2l0cyBQdHkgTHRkMQwwCgYDVQQLDANXU1IxDzAN
BgNVBAMMBldTUiBDQYIUWWPzbkO+QA4CgJ62A3CeWcxNaDkwDQYJKoZIhvcNAQEL
BQADggEBAG0E+Gmb9m1qvPXChQ907jOxGd0Znrz2W15hEbkTZUGJr4sqx2Oh+nJ8
wWRFE8/uwXRKzgJvAECX2kwbOGMpmQ8OxkS7yugrswx1EqPw6dbz1I457dQHjLgI
YloOBTrO7ijVCsdTM6BeaN6PaOzyWMycp1SxawG8fggcIroenD40xt/zbGWYSCJP
QpRw7Kidiv/UdpGWRssp2WYednMioBjLNg+I1AET6nKLVf/2+DulOEpEtQx5N1Z7
eqItuxky/jz0GaEV8I1bkCo+KvVRZljqHFD/aOZRnsmMx8eop+cXnhgwlWpaf7VZ
TVtI3ENE02deVTdEVD+VuWad6i44h/I=
-----END CERTIFICATE-----
